;--------------------------------------------------------
; File Created by SDCC : free open source ISO C Compiler 
; Version 4.4.0 #14620 (Mac OS X ppc)
;--------------------------------------------------------
	.module main
	.optsdcc -mmcs51 --model-small
	
;--------------------------------------------------------
; Public variables in this module
;--------------------------------------------------------
	.globl _main
	.globl _delay_ms
	.globl _uart_send_string
	.globl _uart_init
	.globl _CY
	.globl _AC
	.globl _F0
	.globl _RS1
	.globl _RS0
	.globl _OV
	.globl _F1
	.globl _P
	.globl _PS
	.globl _PT1
	.globl _PX1
	.globl _PT0
	.globl _PX0
	.globl _RD
	.globl _WR
	.globl _T1
	.globl _T0
	.globl _INT1
	.globl _INT0
	.globl _TXD
	.globl _RXD
	.globl _P3_7
	.globl _P3_6
	.globl _P3_5
	.globl _P3_4
	.globl _P3_3
	.globl _P3_2
	.globl _P3_1
	.globl _P3_0
	.globl _EA
	.globl _ES
	.globl _ET1
	.globl _EX1
	.globl _ET0
	.globl _EX0
	.globl _P2_7
	.globl _P2_6
	.globl _P2_5
	.globl _P2_4
	.globl _P2_3
	.globl _P2_2
	.globl _P2_1
	.globl _P2_0
	.globl _SM0
	.globl _SM1
	.globl _SM2
	.globl _REN
	.globl _TB8
	.globl _RB8
	.globl _TI
	.globl _RI
	.globl _P1_7
	.globl _P1_6
	.globl _P1_5
	.globl _P1_4
	.globl _P1_3
	.globl _P1_2
	.globl _P1_1
	.globl _P1_0
	.globl _TF1
	.globl _TR1
	.globl _TF0
	.globl _TR0
	.globl _IE1
	.globl _IT1
	.globl _IE0
	.globl _IT0
	.globl _P0_7
	.globl _P0_6
	.globl _P0_5
	.globl _P0_4
	.globl _P0_3
	.globl _P0_2
	.globl _P0_1
	.globl _P0_0
	.globl _B
	.globl _ACC
	.globl _PSW
	.globl _IP
	.globl _P3
	.globl _IE
	.globl _P2
	.globl _SBUF
	.globl _SCON
	.globl _P1
	.globl _TH1
	.globl _TH0
	.globl _TL1
	.globl _TL0
	.globl _TMOD
	.globl _TCON
	.globl _PCON
	.globl _DPH
	.globl _DPL
	.globl _SP
	.globl _P0
;--------------------------------------------------------
; special function registers
;--------------------------------------------------------
	.area RSEG    (ABS,DATA)
	.org 0x0000
_P0	=	0x0080
_SP	=	0x0081
_DPL	=	0x0082
_DPH	=	0x0083
_PCON	=	0x0087
_TCON	=	0x0088
_TMOD	=	0x0089
_TL0	=	0x008a
_TL1	=	0x008b
_TH0	=	0x008c
_TH1	=	0x008d
_P1	=	0x0090
_SCON	=	0x0098
_SBUF	=	0x0099
_P2	=	0x00a0
_IE	=	0x00a8
_P3	=	0x00b0
_IP	=	0x00b8
_PSW	=	0x00d0
_ACC	=	0x00e0
_B	=	0x00f0
;--------------------------------------------------------
; special function bits
;--------------------------------------------------------
	.area RSEG    (ABS,DATA)
	.org 0x0000
_P0_0	=	0x0080
_P0_1	=	0x0081
_P0_2	=	0x0082
_P0_3	=	0x0083
_P0_4	=	0x0084
_P0_5	=	0x0085
_P0_6	=	0x0086
_P0_7	=	0x0087
_IT0	=	0x0088
_IE0	=	0x0089
_IT1	=	0x008a
_IE1	=	0x008b
_TR0	=	0x008c
_TF0	=	0x008d
_TR1	=	0x008e
_TF1	=	0x008f
_P1_0	=	0x0090
_P1_1	=	0x0091
_P1_2	=	0x0092
_P1_3	=	0x0093
_P1_4	=	0x0094
_P1_5	=	0x0095
_P1_6	=	0x0096
_P1_7	=	0x0097
_RI	=	0x0098
_TI	=	0x0099
_RB8	=	0x009a
_TB8	=	0x009b
_REN	=	0x009c
_SM2	=	0x009d
_SM1	=	0x009e
_SM0	=	0x009f
_P2_0	=	0x00a0
_P2_1	=	0x00a1
_P2_2	=	0x00a2
_P2_3	=	0x00a3
_P2_4	=	0x00a4
_P2_5	=	0x00a5
_P2_6	=	0x00a6
_P2_7	=	0x00a7
_EX0	=	0x00a8
_ET0	=	0x00a9
_EX1	=	0x00aa
_ET1	=	0x00ab
_ES	=	0x00ac
_EA	=	0x00af
_P3_0	=	0x00b0
_P3_1	=	0x00b1
_P3_2	=	0x00b2
_P3_3	=	0x00b3
_P3_4	=	0x00b4
_P3_5	=	0x00b5
_P3_6	=	0x00b6
_P3_7	=	0x00b7
_RXD	=	0x00b0
_TXD	=	0x00b1
_INT0	=	0x00b2
_INT1	=	0x00b3
_T0	=	0x00b4
_T1	=	0x00b5
_WR	=	0x00b6
_RD	=	0x00b7
_PX0	=	0x00b8
_PT0	=	0x00b9
_PX1	=	0x00ba
_PT1	=	0x00bb
_PS	=	0x00bc
_P	=	0x00d0
_F1	=	0x00d1
_OV	=	0x00d2
_RS0	=	0x00d3
_RS1	=	0x00d4
_F0	=	0x00d5
_AC	=	0x00d6
_CY	=	0x00d7
;--------------------------------------------------------
; overlayable register banks
;--------------------------------------------------------
	.area REG_BANK_0	(REL,OVR,DATA)
	.ds 8
;--------------------------------------------------------
; internal ram data
;--------------------------------------------------------
	.area DSEG    (DATA)
;--------------------------------------------------------
; overlayable items in internal ram
;--------------------------------------------------------
	.area	OSEG    (OVR,DATA)
	.area	OSEG    (OVR,DATA)
;--------------------------------------------------------
; Stack segment in internal ram
;--------------------------------------------------------
	.area SSEG
__start__stack:
	.ds	1

;--------------------------------------------------------
; indirectly addressable internal ram data
;--------------------------------------------------------
	.area ISEG    (DATA)
;--------------------------------------------------------
; absolute internal ram data
;--------------------------------------------------------
	.area IABS    (ABS,DATA)
	.area IABS    (ABS,DATA)
;--------------------------------------------------------
; bit data
;--------------------------------------------------------
	.area BSEG    (BIT)
;--------------------------------------------------------
; paged external ram data
;--------------------------------------------------------
	.area PSEG    (PAG,XDATA)
;--------------------------------------------------------
; uninitialized external ram data
;--------------------------------------------------------
	.area XSEG    (XDATA)
;--------------------------------------------------------
; absolute external ram data
;--------------------------------------------------------
	.area XABS    (ABS,XDATA)
;--------------------------------------------------------
; initialized external ram data
;--------------------------------------------------------
	.area XISEG   (XDATA)
	.area HOME    (CODE)
	.area GSINIT0 (CODE)
	.area GSINIT1 (CODE)
	.area GSINIT2 (CODE)
	.area GSINIT3 (CODE)
	.area GSINIT4 (CODE)
	.area GSINIT5 (CODE)
	.area GSINIT  (CODE)
	.area GSFINAL (CODE)
	.area CSEG    (CODE)
;--------------------------------------------------------
; interrupt vector
;--------------------------------------------------------
	.area HOME    (CODE)
__interrupt_vect:
	ljmp	__sdcc_gsinit_startup
;--------------------------------------------------------
; global & static initialisations
;--------------------------------------------------------
	.area HOME    (CODE)
	.area GSINIT  (CODE)
	.area GSFINAL (CODE)
	.area GSINIT  (CODE)
	.globl __sdcc_gsinit_startup
	.globl __sdcc_program_startup
	.globl __start__stack
	.globl __mcs51_genXINIT
	.globl __mcs51_genXRAMCLEAR
	.globl __mcs51_genRAMCLEAR
	.area GSFINAL (CODE)
	ljmp	__sdcc_program_startup
;--------------------------------------------------------
; Home
;--------------------------------------------------------
	.area HOME    (CODE)
	.area HOME    (CODE)
__sdcc_program_startup:
	ljmp	_main
;	return from main will return to caller
;--------------------------------------------------------
; code
;--------------------------------------------------------
	.area CSEG    (CODE)
;------------------------------------------------------------
;Allocation info for local variables in function 'uart_init'
;------------------------------------------------------------
;	main.c:7: void uart_init() {
;	-----------------------------------------
;	 function uart_init
;	-----------------------------------------
_uart_init:
	ar7 = 0x07
	ar6 = 0x06
	ar5 = 0x05
	ar4 = 0x04
	ar3 = 0x03
	ar2 = 0x02
	ar1 = 0x01
	ar0 = 0x00
;	main.c:8: TMOD = 0x20;   // 設置 Timer1 為模式2 (自動重載)
	mov	_TMOD,#0x20
;	main.c:9: TH1 = 0xFD;    // 波特率 9600bps
	mov	_TH1,#0xfd
;	main.c:10: TL1 = 0xFD;
	mov	_TL1,#0xfd
;	main.c:11: TR1 = 1;       // 啟動 Timer1
;	assignBit
	setb	_TR1
;	main.c:12: SCON = 0x50;   // 設置串口為模式1（8位UART，波特率可變）
	mov	_SCON,#0x50
;	main.c:13: TI = 1;        // 傳輸準備完成
;	assignBit
	setb	_TI
;	main.c:14: }
	ret
;------------------------------------------------------------
;Allocation info for local variables in function 'uart_send_string'
;------------------------------------------------------------
;str                       Allocated to registers 
;------------------------------------------------------------
;	main.c:17: void uart_send_string(char *str) {
;	-----------------------------------------
;	 function uart_send_string
;	-----------------------------------------
_uart_send_string:
	mov	r5, dpl
	mov	r6, dph
	mov	r7, b
;	main.c:18: while (*str) {
00104$:
	mov	dpl,r5
	mov	dph,r6
	mov	b,r7
	lcall	__gptrget
	mov	r4,a
	jz	00107$
;	main.c:19: SBUF = *str++;
	mov	_SBUF,r4
	inc	r5
	cjne	r5,#0x00,00135$
	inc	r6
00135$:
;	main.c:20: while (!TI);
00101$:
;	main.c:21: TI = 0;
;	assignBit
	jbc	_TI,00104$
	sjmp	00101$
00107$:
;	main.c:23: }
	ret
;------------------------------------------------------------
;Allocation info for local variables in function 'delay_ms'
;------------------------------------------------------------
;ms                        Allocated to registers r6 r7 
;i                         Allocated to registers r4 r5 
;j                         Allocated to registers r2 r3 
;------------------------------------------------------------
;	main.c:26: void delay_ms(unsigned int ms) {
;	-----------------------------------------
;	 function delay_ms
;	-----------------------------------------
_delay_ms:
	mov	r6, dpl
	mov	r7, dph
;	main.c:28: for (i = 0; i < ms; i++) {
	mov	r4,#0x00
	mov	r5,#0x00
00107$:
	clr	c
	mov	a,r4
	subb	a,r6
	mov	a,r5
	subb	a,r7
	jnc	00109$
;	main.c:29: for (j = 0; j < 120; j++) {
	mov	r2,#0x78
	mov	r3,#0x00
00105$:
	dec	r2
	cjne	r2,#0xff,00138$
	dec	r3
00138$:
	mov	a,r2
	orl	a,r3
	jnz	00105$
;	main.c:28: for (i = 0; i < ms; i++) {
	inc	r4
	cjne	r4,#0x00,00107$
	inc	r5
	sjmp	00107$
00109$:
;	main.c:33: }
	ret
;------------------------------------------------------------
;Allocation info for local variables in function 'main'
;------------------------------------------------------------
;	main.c:35: void main() {
;	-----------------------------------------
;	 function main
;	-----------------------------------------
_main:
;	main.c:36: uart_init();  // 初始化 UART
	lcall	_uart_init
;	main.c:37: LED = 0;      // 初始化 LED 為關閉
;	assignBit
	clr	_P2_0
;	main.c:39: uart_send_string("System Initialized\r\n");
	mov	dptr,#___str_0
	mov	b, #0x80
	lcall	_uart_send_string
;	main.c:41: while (1) {
00105$:
;	main.c:43: if (LED == 0) {
	jb	_P2_0,00102$
;	main.c:44: LED = 1; // 打開 LED
;	assignBit
	setb	_P2_0
;	main.c:45: uart_send_string("LED ON\r\n");
	mov	dptr,#___str_1
	mov	b, #0x80
	lcall	_uart_send_string
	sjmp	00103$
00102$:
;	main.c:47: LED = 0; // 關閉 LED
;	assignBit
	clr	_P2_0
;	main.c:48: uart_send_string("LED OFF\r\n");
	mov	dptr,#___str_2
	mov	b, #0x80
	lcall	_uart_send_string
00103$:
;	main.c:51: delay_ms(1000); // 延時 1000ms
	mov	dptr,#0x03e8
	lcall	_delay_ms
;	main.c:53: }
	sjmp	00105$
	.area CSEG    (CODE)
	.area CONST   (CODE)
	.area CONST   (CODE)
___str_0:
	.ascii "System Initialized"
	.db 0x0d
	.db 0x0a
	.db 0x00
	.area CSEG    (CODE)
	.area CONST   (CODE)
___str_1:
	.ascii "LED ON"
	.db 0x0d
	.db 0x0a
	.db 0x00
	.area CSEG    (CODE)
	.area CONST   (CODE)
___str_2:
	.ascii "LED OFF"
	.db 0x0d
	.db 0x0a
	.db 0x00
	.area CSEG    (CODE)
	.area XINIT   (CODE)
	.area CABS    (ABS,CODE)
